; Function Attrs: nounwind uwtable
define internal range(i32 0, 2) i32 @ssl_dhe_generate_keypair(ptr noundef readonly captures(none) %0, ptr noundef %1) #3 {
  %3 = getelementptr inbounds nuw i8, ptr %0, i64 8
  %4 = load ptr, ptr %3, align 8, !tbaa !22
  %5 = tail call i32 @DH_generate_key(ptr noundef %4) #8
  %.not = icmp eq i32 %5, 0
  br i1 %.not, label %15, label %6

6:                                                ; preds = %2
  %7 = load ptr, ptr %4, align 8, !tbaa !31
  %8 = tail call i32 @BN_num_bytes(ptr noundef %7) #8
  %9 = zext i32 %8 to i64
  %10 = getelementptr inbounds nuw i8, ptr %4, i64 16
  %11 = load ptr, ptr %10, align 8, !tbaa !37
  %12 = tail call i32 @BN_bn2cbb_padded(ptr noundef %1, i64 noundef %9, ptr noundef %11) #8
  %13 = icmp ne i32 %12, 0
  %14 = zext i1 %13 to i32
  br label %15

15:                                               ; preds = %6, %2
  %16 = phi i32 [ 0, %2 ], [ %14, %6 ]
  ret i32 %16
}